target datalayout = "e-m:e-p270:32:32-p271:32:32-p272:64:64-i64:64-i128:128-f80:128-n8:16:32:64-S128"
target triple = "x86_64-pc-linux-gnu"

%struct.AVPacket = type { ptr, i64, i64, ptr, i32, i32, i32, ptr, i32, i64, i64, ptr, ptr, %struct.AVRational }
%struct.AVRational = type { i32, i32 }
%struct.AVStream = type { ptr, i32, i32, ptr, ptr, %struct.AVRational, i64, i64, i64, i32, i32, %struct.AVRational, ptr, %struct.AVRational, %struct.AVPacket, i32, %struct.AVRational, i32 }
%struct.AVFormatContext = type { ptr, ptr, ptr, ptr, ptr, i32, i32, ptr, i32, ptr, i32, ptr, ptr, i64, i64, i64, i32, i32, i32, i64, i64, ptr, i32, i32, ptr, i32, i32, i32, i32, ptr, i64, i32, i32, %struct.AVIOInterruptCB, i32, i32, i32, i32, i64, i32, i32, i32, i32, i32, i32, i32, i32, i32, i32, i32, i32, i64, i32, i32, i32, i32, i32, ptr, ptr, ptr, ptr, i32, ptr, ptr, ptr, ptr, i32, ptr, ptr, i64, ptr, ptr, ptr, i64 }
%struct.AVIOInterruptCB = type { ptr, ptr }
%struct.RMDemuxContext = type { i32, i32, i32, i32, i32, i32, i32 }

@.str.35 = private unnamed_addr constant [50 x i8] c"Index size %d (%d pkts) is wrong, should be %ld.\0A\00", align 1
@.str.36 = private unnamed_addr constant [50 x i8] c"DATA tag in middle of chunk, file may be broken.\0A\00", align 1

; Function Attrs: alwaysinline nounwind uwtable
define internal i64 @avio_tell(ptr noundef %0) #3 {
  %2 = alloca ptr, align 8
  store ptr %0, ptr %2, align 8, !tbaa !20
  %3 = load ptr, ptr %2, align 8, !tbaa !20
  %4 = call i64 @avio_seek(ptr noundef %3, i64 noundef 0, i32 noundef 1)
  ret i64 %4
}

; Function Attrs: nounwind uwtable
define internal i32 @rm_sync(ptr noundef %0, ptr noundef %1, ptr noundef %2, ptr noundef %3, ptr noundef %4) #0 {
  %6 = alloca i32, align 4
  %7 = alloca ptr, align 8
  %8 = alloca ptr, align 8
  %9 = alloca ptr, align 8
  %10 = alloca ptr, align 8
  %11 = alloca ptr, align 8
  %12 = alloca ptr, align 8
  %13 = alloca ptr, align 8
  %14 = alloca ptr, align 8
  %15 = alloca i32, align 4
  %16 = alloca i32, align 4
  %17 = alloca i32, align 4
  %18 = alloca i32, align 4
  %19 = alloca i32, align 4
  %20 = alloca i32, align 4
  %21 = alloca i32, align 4
  %22 = alloca i64, align 8
  %23 = alloca i32, align 4
  store ptr %0, ptr %7, align 8, !tbaa !18
  store ptr %1, ptr %8, align 8, !tbaa !107
  store ptr %2, ptr %9, align 8, !tbaa !87
  store ptr %3, ptr %10, align 8, !tbaa !87
  store ptr %4, ptr %11, align 8, !tbaa !107
  call void @llvm.lifetime.start.p0(i64 8, ptr %12) #10
  %24 = load ptr, ptr %7, align 8, !tbaa !18
  %25 = getelementptr inbounds nuw %struct.AVFormatContext, ptr %24, i32 0, i32 3
  %26 = load ptr, ptr %25, align 8, !tbaa !89
  store ptr %26, ptr %12, align 8, !tbaa !90
  call void @llvm.lifetime.start.p0(i64 8, ptr %13) #10
  %27 = load ptr, ptr %7, align 8, !tbaa !18
  %28 = getelementptr inbounds nuw %struct.AVFormatContext, ptr %27, i32 0, i32 4
  %29 = load ptr, ptr %28, align 8, !tbaa !122
  store ptr %29, ptr %13, align 8, !tbaa !20
  call void @llvm.lifetime.start.p0(i64 8, ptr %14) #10
  call void @llvm.lifetime.start.p0(i64 4, ptr %15) #10
  store i32 -1, ptr %15, align 4, !tbaa !24
  br label %30

30:                                               ; preds = %202, %5
  %31 = load ptr, ptr %13, align 8, !tbaa !20
  %32 = call i32 @avio_feof(ptr noundef %31)
  %33 = icmp ne i32 %32, 0
  %34 = xor i1 %33, true
  br i1 %34, label %35, label %204

35:                                               ; preds = %30
  call void @llvm.lifetime.start.p0(i64 4, ptr %16) #10
  call void @llvm.lifetime.start.p0(i64 4, ptr %17) #10
  call void @llvm.lifetime.start.p0(i64 4, ptr %18) #10
  call void @llvm.lifetime.start.p0(i64 4, ptr %19) #10
  %36 = load ptr, ptr %13, align 8, !tbaa !20
  %37 = call i64 @avio_tell(ptr noundef %36)
  %38 = sub nsw i64 %37, 3
  %39 = load ptr, ptr %11, align 8, !tbaa !107
  store i64 %38, ptr %39, align 8, !tbaa !34
  %40 = load ptr, ptr %12, align 8, !tbaa !90
  %41 = getelementptr inbounds nuw %struct.RMDemuxContext, ptr %40, i32 0, i32 3
  %42 = load i32, ptr %41, align 4, !tbaa !109
  %43 = icmp sgt i32 %42, 0
  br i1 %43, label %44, label %53

44:                                               ; preds = %35
  %45 = load ptr, ptr %12, align 8, !tbaa !90
  %46 = getelementptr inbounds nuw %struct.RMDemuxContext, ptr %45, i32 0, i32 2
  %47 = load i32, ptr %46, align 4, !tbaa !93
  store i32 %47, ptr %17, align 4, !tbaa !24
  store i32 0, ptr %19, align 4, !tbaa !24
  %48 = load ptr, ptr %12, align 8, !tbaa !90
  %49 = getelementptr inbounds nuw %struct.RMDemuxContext, ptr %48, i32 0, i32 3
  %50 = load i32, ptr %49, align 4, !tbaa !109
  store i32 %50, ptr %16, align 4, !tbaa !24
  %51 = load ptr, ptr %8, align 8, !tbaa !107
  store i64 -9223372036854775808, ptr %51, align 8, !tbaa !34
  %52 = load ptr, ptr %9, align 8, !tbaa !87
  store i32 0, ptr %52, align 4, !tbaa !24
  br label %157

53:                                               ; preds = %35
  %54 = load i32, ptr %15, align 4, !tbaa !24
  %55 = shl i32 %54, 8
  %56 = load ptr, ptr %13, align 8, !tbaa !20
  %57 = call i32 @avio_r8(ptr noundef %56)
  %58 = add i32 %55, %57
  store i32 %58, ptr %15, align 4, !tbaa !24
  %59 = load i32, ptr %15, align 4, !tbaa !24
  %60 = icmp eq i32 %59, 1229866072
  br i1 %60, label %61, label %120

61:                                               ; preds = %53
  call void @llvm.lifetime.start.p0(i64 4, ptr %20) #10
  call void @llvm.lifetime.start.p0(i64 4, ptr %21) #10
  call void @llvm.lifetime.start.p0(i64 8, ptr %22) #10
  %62 = load ptr, ptr %13, align 8, !tbaa !20
  %63 = call i32 @avio_rb32(ptr noundef %62)
  store i32 %63, ptr %16, align 4, !tbaa !24
  %64 = load ptr, ptr %13, align 8, !tbaa !20
  %65 = call i32 @avio_rb16(ptr noundef %64)
  store i32 %65, ptr %20, align 4, !tbaa !24
  %66 = load i32, ptr %20, align 4, !tbaa !24
  %67 = icmp ne i32 %66, 0
  br i1 %67, label %68, label %72

68:                                               ; preds = %61
  %69 = load i32, ptr %20, align 4, !tbaa !24
  %70 = icmp ne i32 %69, 2
  br i1 %70, label %71, label %72

71:                                               ; preds = %68
  store i32 -1094995529, ptr %6, align 4
  store i32 1, ptr %23, align 4
  br label %118

72:                                               ; preds = %68, %61
  %73 = load ptr, ptr %13, align 8, !tbaa !20
  %74 = call i32 @avio_rb32(ptr noundef %73)
  store i32 %74, ptr %21, align 4, !tbaa !24
  %75 = load i32, ptr %20, align 4, !tbaa !24
  %76 = icmp eq i32 %75, 0
  br i1 %76, label %77, label %82

77:                                               ; preds = %72
  %78 = load i32, ptr %21, align 4, !tbaa !24
  %79 = sext i32 %78 to i64
  %80 = mul nsw i64 %79, 14
  %81 = add nsw i64 20, %80
  store i64 %81, ptr %22, align 8, !tbaa !34
  br label %91

82:                                               ; preds = %72
  %83 = load i32, ptr %20, align 4, !tbaa !24
  %84 = icmp eq i32 %83, 2
  br i1 %84, label %85, label %90

85:                                               ; preds = %82
  %86 = load i32, ptr %21, align 4, !tbaa !24
  %87 = sext i32 %86 to i64
  %88 = mul nsw i64 %87, 18
  %89 = add nsw i64 24, %88
  store i64 %89, ptr %22, align 8, !tbaa !34
  br label %90

90:                                               ; preds = %85, %82
  br label %91

91:                                               ; preds = %90, %77
  %92 = load i32, ptr %16, align 4, !tbaa !24
  %93 = icmp eq i32 %92, 20
  br i1 %93, label %94, label %100

94:                                               ; preds = %91
  %95 = load i64, ptr %22, align 8, !tbaa !34
  %96 = icmp sle i64 %95, 2147483647
  br i1 %96, label %97, label %100

97:                                               ; preds = %94
  %98 = load i64, ptr %22, align 8, !tbaa !34
  %99 = trunc i64 %98 to i32
  store i32 %99, ptr %16, align 4, !tbaa !24
  br label %111

100:                                              ; preds = %94, %91
  %101 = load i32, ptr %16, align 4, !tbaa !24
  %102 = sext i32 %101 to i64
  %103 = load i64, ptr %22, align 8, !tbaa !34
  %104 = icmp ne i64 %102, %103
  br i1 %104, label %105, label %110

105:                                              ; preds = %100
  %106 = load ptr, ptr %7, align 8, !tbaa !18
  %107 = load i32, ptr %16, align 4, !tbaa !24
  %108 = load i32, ptr %21, align 4, !tbaa !24
  %109 = load i64, ptr %22, align 8, !tbaa !34
  call void (ptr, i32, ptr, ...) @av_log(ptr noundef %106, i32 noundef 24, ptr noundef @.str.35, i32 noundef %107, i32 noundef %108, i64 noundef %109)
  br label %110

110:                                              ; preds = %105, %100
  br label %111

111:                                              ; preds = %110, %97
  %112 = load i32, ptr %16, align 4, !tbaa !24
  %113 = icmp slt i32 %112, 14
  br i1 %113, label %114, label %115

114:                                              ; preds = %111
  store i32 2, ptr %23, align 4
  br label %118, !llvm.loop !149

115:                                              ; preds = %111
  %116 = load i32, ptr %16, align 4, !tbaa !24
  %117 = sub nsw i32 %116, 14
  store i32 %117, ptr %16, align 4, !tbaa !24
  store i32 4, ptr %23, align 4
  br label %118

118:                                              ; preds = %115, %114, %71
  call void @llvm.lifetime.end.p0(i64 8, ptr %22) #10
  call void @llvm.lifetime.end.p0(i64 4, ptr %21) #10
  call void @llvm.lifetime.end.p0(i64 4, ptr %20) #10
  %119 = load i32, ptr %23, align 4
  switch i32 %119, label %202 [
    i32 4, label %191
  ]

120:                                              ; preds = %53
  %121 = load i32, ptr %15, align 4, !tbaa !24
  %122 = icmp eq i32 %121, 1145132097
  br i1 %122, label %123, label %125

123:                                              ; preds = %120
  %124 = load ptr, ptr %7, align 8, !tbaa !18
  call void (ptr, i32, ptr, ...) @av_log(ptr noundef %124, i32 noundef 24, ptr noundef @.str.36)
  br label %125

125:                                              ; preds = %123, %120
  br label %126

126:                                              ; preds = %125
  %127 = load i32, ptr %15, align 4, !tbaa !24
  %128 = icmp ugt i32 %127, 65535
  br i1 %128, label %132, label %129

129:                                              ; preds = %126
  %130 = load i32, ptr %15, align 4, !tbaa !24
  %131 = icmp ule i32 %130, 12
  br i1 %131, label %132, label %133

132:                                              ; preds = %129, %126
  store i32 2, ptr %23, align 4
  br label %202, !llvm.loop !149

133:                                              ; preds = %129
  %134 = load i32, ptr %15, align 4, !tbaa !24
  %135 = sub i32 %134, 12
  store i32 %135, ptr %16, align 4, !tbaa !24
  store i32 -1, ptr %15, align 4, !tbaa !24
  %136 = load ptr, ptr %13, align 8, !tbaa !20
  %137 = call i32 @avio_rb16(ptr noundef %136)
  store i32 %137, ptr %17, align 4, !tbaa !24
  %138 = load ptr, ptr %13, align 8, !tbaa !20
  %139 = call i32 @avio_rb32(ptr noundef %138)
  %140 = zext i32 %139 to i64
  %141 = load ptr, ptr %8, align 8, !tbaa !107
  store i64 %140, ptr %141, align 8, !tbaa !34
  %142 = load ptr, ptr %13, align 8, !tbaa !20
  %143 = call i32 @avio_r8(ptr noundef %142)
  %144 = ashr i32 %143, 1
  %145 = sub nsw i32 %144, 1
  store i32 %145, ptr %19, align 4, !tbaa !24
  %146 = load i32, ptr %19, align 4, !tbaa !24
  %147 = icmp sgt i32 %146, 0
  br i1 %147, label %148, label %150

148:                                              ; preds = %133
  %149 = load i32, ptr %19, align 4, !tbaa !24
  br label %151

150:                                              ; preds = %133
  br label %151

151:                                              ; preds = %150, %148
  %152 = phi i32 [ %149, %148 ], [ 0, %150 ]
  %153 = shl i32 %152, 16
  store i32 %153, ptr %19, align 4, !tbaa !24
  %154 = load ptr, ptr %13, align 8, !tbaa !20
  %155 = call i32 @avio_r8(ptr noundef %154)
  %156 = load ptr, ptr %9, align 8, !tbaa !87
  store i32 %155, ptr %156, align 4, !tbaa !24
  br label %157

157:                                              ; preds = %151, %44
  store i32 0, ptr %18, align 4, !tbaa !24
  br label %158

158:                                              ; preds = %181, %157
  %159 = load i32, ptr %18, align 4, !tbaa !24
  %160 = load ptr, ptr %7, align 8, !tbaa !18
  %161 = getelementptr inbounds nuw %struct.AVFormatContext, ptr %160, i32 0, i32 6
  %162 = load i32, ptr %161, align 4, !tbaa !134
  %163 = icmp ult i32 %159, %162
  br i1 %163, label %164, label %184

164:                                              ; preds = %158
  %165 = load ptr, ptr %7, align 8, !tbaa !18
  %166 = getelementptr inbounds nuw %struct.AVFormatContext, ptr %165, i32 0, i32 7
  %167 = load ptr, ptr %166, align 8, !tbaa !131
  %168 = load i32, ptr %18, align 4, !tbaa !24
  %169 = sext i32 %168 to i64
  %170 = getelementptr inbounds ptr, ptr %167, i64 %169
  %171 = load ptr, ptr %170, align 8, !tbaa !22
  store ptr %171, ptr %14, align 8, !tbaa !22
  %172 = load i32, ptr %19, align 4, !tbaa !24
  %173 = load i32, ptr %17, align 4, !tbaa !24
  %174 = add nsw i32 %172, %173
  %175 = load ptr, ptr %14, align 8, !tbaa !22
  %176 = getelementptr inbounds nuw %struct.AVStream, ptr %175, i32 0, i32 2
  %177 = load i32, ptr %176, align 4, !tbaa !92
  %178 = icmp eq i32 %174, %177
  br i1 %178, label %179, label %180

179:                                              ; preds = %164
  br label %184

180:                                              ; preds = %164
  br label %181

181:                                              ; preds = %180
  %182 = load i32, ptr %18, align 4, !tbaa !24
  %183 = add nsw i32 %182, 1
  store i32 %183, ptr %18, align 4, !tbaa !24
  br label %158, !llvm.loop !150

184:                                              ; preds = %179, %158
  %185 = load i32, ptr %18, align 4, !tbaa !24
  %186 = load ptr, ptr %7, align 8, !tbaa !18
  %187 = getelementptr inbounds nuw %struct.AVFormatContext, ptr %186, i32 0, i32 6
  %188 = load i32, ptr %187, align 4, !tbaa !134
  %189 = icmp eq i32 %185, %188
  br i1 %189, label %190, label %198

190:                                              ; preds = %184
  br label %191

191:                                              ; preds = %190, %118
  %192 = load ptr, ptr %13, align 8, !tbaa !20
  %193 = load i32, ptr %16, align 4, !tbaa !24
  %194 = sext i32 %193 to i64
  %195 = call i64 @avio_skip(ptr noundef %192, i64 noundef %194)
  %196 = load ptr, ptr %12, align 8, !tbaa !90
  %197 = getelementptr inbounds nuw %struct.RMDemuxContext, ptr %196, i32 0, i32 3
  store i32 0, ptr %197, align 4, !tbaa !109
  store i32 2, ptr %23, align 4
  br label %202, !llvm.loop !149

198:                                              ; preds = %184
  %199 = load i32, ptr %18, align 4, !tbaa !24
  %200 = load ptr, ptr %10, align 8, !tbaa !87
  store i32 %199, ptr %200, align 4, !tbaa !24
  %201 = load i32, ptr %16, align 4, !tbaa !24
  store i32 %201, ptr %6, align 4
  store i32 1, ptr %23, align 4
  br label %202

202:                                              ; preds = %198, %191, %118, %132
  call void @llvm.lifetime.end.p0(i64 4, ptr %19) #10
  call void @llvm.lifetime.end.p0(i64 4, ptr %18) #10
  call void @llvm.lifetime.end.p0(i64 4, ptr %17) #10
  call void @llvm.lifetime.end.p0(i64 4, ptr %16) #10
  %203 = load i32, ptr %23, align 4
  switch i32 %203, label %205 [
    i32 2, label %30
  ]

204:                                              ; preds = %30
  store i32 -1, ptr %6, align 4
  store i32 1, ptr %23, align 4
  br label %205

205:                                              ; preds = %204, %202
  call void @llvm.lifetime.end.p0(i64 4, ptr %15) #10
  call void @llvm.lifetime.end.p0(i64 8, ptr %14) #10
  call void @llvm.lifetime.end.p0(i64 8, ptr %13) #10
  call void @llvm.lifetime.end.p0(i64 8, ptr %12) #10
  %206 = load i32, ptr %6, align 4
  ret i32 %206
}