; Function Attrs: nounwind uwtable
define internal fastcc i32 @rm_sync(ptr noundef %0, ptr noundef nonnull writeonly captures(none) %1, ptr noundef nonnull writeonly captures(none) %2, ptr noundef nonnull writeonly captures(none) %3, ptr noundef nonnull writeonly captures(none) %4) unnamed_addr #0 {
  %6 = getelementptr inbounds nuw i8, ptr %0, i64 24
  %7 = load ptr, ptr %6, align 8, !tbaa !71
  %8 = getelementptr inbounds nuw i8, ptr %0, i64 32
  %9 = load ptr, ptr %8, align 8, !tbaa !98
  %10 = tail call i32 @avio_feof(ptr noundef %9) #12
  %.not116 = icmp eq i32 %10, 0
  br i1 %.not116, label %.lr.ph120, label %.thread.thread

.lr.ph120:                                        ; preds = %5
  %11 = getelementptr inbounds nuw i8, ptr %7, i64 12
  %12 = getelementptr inbounds nuw i8, ptr %7, i64 8
  %13 = getelementptr inbounds nuw i8, ptr %0, i64 48
  %14 = getelementptr inbounds nuw i8, ptr %0, i64 44
  br label %15

15:                                               ; preds = %.lr.ph120, %.thread
  %.070118 = phi i64 [ undef, %.lr.ph120 ], [ %.3, %.thread ]
  %.077117 = phi i32 [ -1, %.lr.ph120 ], [ %.279, %.thread ]
  %16 = tail call i64 @avio_seek(ptr noundef %9, i64 noundef 0, i32 noundef 1) #12
  %17 = add nsw i64 %16, -3
  store i64 %17, ptr %4, align 8, !tbaa !110
  %18 = load i32, ptr %11, align 4, !tbaa !75
  %19 = icmp sgt i32 %18, 0
  br i1 %19, label %20, label %22

20:                                               ; preds = %15
  %21 = load i32, ptr %12, align 4, !tbaa !73
  store i64 -9223372036854775808, ptr %1, align 8, !tbaa !110
  br label %65

22:                                               ; preds = %15
  %23 = shl i32 %.077117, 8
  %24 = tail call i32 @avio_r8(ptr noundef %9) #12
  %25 = add i32 %24, %23
  switch i32 %25, label %52 [
    i32 1229866072, label %26
    i32 1145132097, label %.thread98
  ]

26:                                               ; preds = %22
  %27 = tail call i32 @avio_rb32(ptr noundef %9) #12
  %28 = tail call i32 @avio_rb16(ptr noundef %9) #12
  %29 = and i32 %28, -3
  %or.cond.not = icmp eq i32 %29, 0
  br i1 %or.cond.not, label %30, label %.thread.thread

30:                                               ; preds = %26
  %31 = tail call i32 @avio_rb32(ptr noundef %9) #12
  switch i32 %28, label %40 [
    i32 0, label %32
    i32 2, label %36
  ]

32:                                               ; preds = %30
  %33 = sext i32 %31 to i64
  %34 = mul nsw i64 %33, 14
  %35 = add nsw i64 %34, 20
  br label %40

36:                                               ; preds = %30
  %37 = sext i32 %31 to i64
  %38 = mul nsw i64 %37, 18
  %39 = add nsw i64 %38, 24
  br label %40

40:                                               ; preds = %30, %36, %32
  %.2 = phi i64 [ %35, %32 ], [ %39, %36 ], [ %.070118, %30 ]
  %41 = icmp eq i32 %27, 20
  %42 = icmp slt i64 %.2, 2147483648
  %or.cond4 = select i1 %41, i1 %42, i1 false
  br i1 %or.cond4, label %43, label %45

43:                                               ; preds = %40
  %44 = trunc i64 %.2 to i32
  br label %48

45:                                               ; preds = %40
  %46 = sext i32 %27 to i64
  %.not92 = icmp eq i64 %.2, %46
  br i1 %.not92, label %48, label %47

47:                                               ; preds = %45
  tail call void (ptr, i32, ptr, ...) @av_log(ptr noundef %0, i32 noundef 24, ptr noundef nonnull @.str.35, i32 noundef %27, i32 noundef %31, i64 noundef %.2) #12
  br label %48

48:                                               ; preds = %45, %47, %43
  %.286 = phi i32 [ %44, %43 ], [ %27, %47 ], [ %27, %45 ]
  %49 = icmp slt i32 %.286, 14
  br i1 %49, label %.thread, label %50, !llvm.loop !126

50:                                               ; preds = %48
  %51 = add nsw i32 %.286, -14
  br label %._crit_edge.thread

.thread98:                                        ; preds = %22
  tail call void (ptr, i32, ptr, ...) @av_log(ptr noundef %0, i32 noundef 24, ptr noundef nonnull @.str.36) #12
  br label %.thread

52:                                               ; preds = %22
  %53 = add i32 %25, -65536
  %or.cond6 = icmp ult i32 %53, -65523
  br i1 %or.cond6, label %.thread, label %54, !llvm.loop !126

54:                                               ; preds = %52
  %55 = add nsw i32 %25, -12
  %56 = tail call i32 @avio_rb16(ptr noundef %9) #12
  %57 = tail call i32 @avio_rb32(ptr noundef %9) #12
  %58 = zext i32 %57 to i64
  store i64 %58, ptr %1, align 8, !tbaa !110
  %59 = tail call i32 @avio_r8(ptr noundef %9) #12
  %60 = ashr i32 %59, 1
  %61 = tail call i32 @llvm.smax.i32(i32 %60, i32 1)
  %62 = shl i32 %61, 16
  %63 = add i32 %62, -65536
  %64 = tail call i32 @avio_r8(ptr noundef %9) #12
  br label %65

65:                                               ; preds = %54, %20
  %storemerge = phi i32 [ %64, %54 ], [ 0, %20 ]
  %.084 = phi i32 [ %55, %54 ], [ %18, %20 ]
  %.083 = phi i32 [ %56, %54 ], [ %21, %20 ]
  %.081 = phi i32 [ %63, %54 ], [ 0, %20 ]
  %.178 = phi i32 [ -1, %54 ], [ %.077117, %20 ]
  store i32 %storemerge, ptr %2, align 4, !tbaa !61
  %66 = load i32, ptr %14, align 4, !tbaa !112
  %.not124 = icmp eq i32 %66, 0
  br i1 %.not124, label %._crit_edge, label %.lr.ph

.lr.ph:                                           ; preds = %65
  %67 = load ptr, ptr %13, align 8, !tbaa !107
  %68 = add nsw i32 %.081, %.083
  %wide.trip.count = zext i32 %66 to i64
  br label %69

69:                                               ; preds = %.lr.ph, %75
  %indvars.iv = phi i64 [ 0, %.lr.ph ], [ %indvars.iv.next, %75 ]
  %70 = getelementptr inbounds nuw ptr, ptr %67, i64 %indvars.iv
  %71 = load ptr, ptr %70, align 8, !tbaa !108
  %72 = getelementptr inbounds nuw i8, ptr %71, i64 12
  %73 = load i32, ptr %72, align 4, !tbaa !72
  %74 = icmp eq i32 %68, %73
  br i1 %74, label %._crit_edge.loopexit, label %75

75:                                               ; preds = %69
  %indvars.iv.next = add nuw nsw i64 %indvars.iv, 1
  %exitcond.not = icmp eq i64 %indvars.iv.next, %wide.trip.count
  br i1 %exitcond.not, label %._crit_edge.thread, label %69, !llvm.loop !127

._crit_edge.loopexit:                             ; preds = %69
  %76 = trunc nuw nsw i64 %indvars.iv to i32
  br label %._crit_edge

._crit_edge:                                      ; preds = %._crit_edge.loopexit, %65
  %.082.lcssa = phi i32 [ 0, %65 ], [ %76, %._crit_edge.loopexit ]
  %77 = icmp eq i32 %.082.lcssa, %66
  br i1 %77, label %._crit_edge.thread, label %.thread100

._crit_edge.thread:                               ; preds = %75, %50, %._crit_edge
  %.387 = phi i32 [ %.084, %._crit_edge ], [ %51, %50 ], [ %.084, %75 ]
  %.380 = phi i32 [ %.178, %._crit_edge ], [ 1229866072, %50 ], [ %.178, %75 ]
  %.4 = phi i64 [ %.070118, %._crit_edge ], [ %.2, %50 ], [ %.070118, %75 ]
  %78 = sext i32 %.387 to i64
  %79 = tail call i64 @avio_skip(ptr noundef %9, i64 noundef %78) #12
  store i32 0, ptr %11, align 4, !tbaa !75
  br label %.thread, !llvm.loop !126

.thread100:                                       ; preds = %._crit_edge
  store i32 %.082.lcssa, ptr %3, align 4, !tbaa !61
  br label %.thread.thread

.thread:                                          ; preds = %48, %.thread98, %52, %._crit_edge.thread
  %.279 = phi i32 [ %.380, %._crit_edge.thread ], [ %25, %52 ], [ 1145132097, %.thread98 ], [ 1229866072, %48 ]
  %.3 = phi i64 [ %.4, %._crit_edge.thread ], [ %.070118, %52 ], [ %.070118, %.thread98 ], [ %.2, %48 ]
  %80 = tail call i32 @avio_feof(ptr noundef %9) #12
  %.not = icmp eq i32 %80, 0
  br i1 %.not, label %15, label %.thread.thread

.thread.thread:                                   ; preds = %.thread, %26, %5, %.thread100
  %.476 = phi i32 [ %.084, %.thread100 ], [ -1, %5 ], [ -1, %.thread ], [ -1094995529, %26 ]
  ret i32 %.476
}